; Function Attrs: mustprogress nounwind uwtable
define internal void @_ZN9grpc_core19LoadBalancingPolicy42ParentOwningDelegatingChannelControlHelperINS_12_GLOBAL__N_120XdsClusterResolverLbEED0Ev(ptr noundef nonnull align 8 dereferenceable(16) %this) unnamed_addr #7 align 2 personality ptr @__gxx_personality_v0 {
entry:
  store ptr getelementptr inbounds ({ [13 x ptr] }, ptr @_ZTVN9grpc_core19LoadBalancingPolicy42ParentOwningDelegatingChannelControlHelperINS_12_GLOBAL__N_120XdsClusterResolverLbEEE, i64 0, i32 0, i64 2), ptr %this, align 8
  %parent_.i = getelementptr inbounds i8, ptr %this, i64 8
  %0 = load ptr, ptr %parent_.i, align 8
  store ptr null, ptr %parent_.i, align 8
  %cmp.not.i.i = icmp eq ptr %0, null
  br i1 %cmp.not.i.i, label %_ZN9grpc_core19LoadBalancingPolicy42ParentOwningDelegatingChannelControlHelperINS_12_GLOBAL__N_120XdsClusterResolverLbEED2Ev.exit, label %if.then.i.i

if.then.i.i:                                      ; preds = %entry
  %refs_.i.i.i = getelementptr inbounds i8, ptr %0, i64 8
  %1 = atomicrmw sub ptr %refs_.i.i.i, i64 1 acq_rel, align 8
  %cmp.i.i.i.i = icmp eq i64 %1, 1
  br i1 %cmp.i.i.i.i, label %if.then.i.i.i, label %invoke.cont2.i

if.then.i.i.i:                                    ; preds = %if.then.i.i
  %vtable.i.i.i.i = load ptr, ptr %0, align 8
  %vfn.i.i.i.i = getelementptr inbounds i8, ptr %vtable.i.i.i.i, i64 16
  %2 = load ptr, ptr %vfn.i.i.i.i, align 8
  tail call void %2(ptr noundef nonnull align 8 dereferenceable(56) %0) #27
  br label %invoke.cont2.i

invoke.cont2.i:                                   ; preds = %if.then.i.i.i, %if.then.i.i
  %.pr.i = load ptr, ptr %parent_.i, align 8
  %cmp.not.i1.i = icmp eq ptr %.pr.i, null
  br i1 %cmp.not.i1.i, label %_ZN9grpc_core19LoadBalancingPolicy42ParentOwningDelegatingChannelControlHelperINS_12_GLOBAL__N_120XdsClusterResolverLbEED2Ev.exit, label %if.then.i2.i

if.then.i2.i:                                     ; preds = %invoke.cont2.i
  %refs_.i.i3.i = getelementptr inbounds i8, ptr %.pr.i, i64 8
  %3 = atomicrmw sub ptr %refs_.i.i3.i, i64 1 acq_rel, align 8
  %cmp.i.i.i4.i = icmp eq i64 %3, 1
  br i1 %cmp.i.i.i4.i, label %if.then.i.i5.i, label %_ZN9grpc_core19LoadBalancingPolicy42ParentOwningDelegatingChannelControlHelperINS_12_GLOBAL__N_120XdsClusterResolverLbEED2Ev.exit

if.then.i.i5.i:                                   ; preds = %if.then.i2.i
  %vtable.i.i.i6.i = load ptr, ptr %.pr.i, align 8
  %vfn.i.i.i7.i = getelementptr inbounds i8, ptr %vtable.i.i.i6.i, i64 16
  %4 = load ptr, ptr %vfn.i.i.i7.i, align 8
  tail call void %4(ptr noundef nonnull align 8 dereferenceable(56) %.pr.i) #27
  br label %_ZN9grpc_core19LoadBalancingPolicy42ParentOwningDelegatingChannelControlHelperINS_12_GLOBAL__N_120XdsClusterResolverLbEED2Ev.exit

_ZN9grpc_core19LoadBalancingPolicy42ParentOwningDelegatingChannelControlHelperINS_12_GLOBAL__N_120XdsClusterResolverLbEED2Ev.exit: ; preds = %entry, %invoke.cont2.i, %if.then.i2.i, %if.then.i.i5.i
  tail call void @_ZdlPv(ptr noundef nonnull %this) #29
  ret void
}